; Function Attrs: nofree norecurse nosync nounwind memory(readwrite, inaccessiblemem: none) uwtable
define internal void @scale_samples_fltp(ptr noundef readonly captures(none) %0, ptr noundef readonly captures(none) %1, i32 noundef %2, i32 noundef %3, double noundef %4) #6 {
  %6 = icmp sgt i32 %2, 0
  %7 = icmp sgt i32 %3, 0
  %or.cond = and i1 %6, %7
  br i1 %or.cond, label %.preheader.us.preheader, label %._crit_edge17

.preheader.us.preheader:                          ; preds = %5
  %wide.trip.count23 = zext nneg i32 %2 to i64
  %wide.trip.count = zext nneg i32 %3 to i64
  br label %.preheader.us

.preheader.us:                                    ; preds = %.preheader.us.preheader, %._crit_edge.us
  %indvars.iv20 = phi i64 [ 0, %.preheader.us.preheader ], [ %indvars.iv.next21, %._crit_edge.us ]
  br label %8

8:                                                ; preds = %.preheader.us, %8
  %indvars.iv = phi i64 [ 0, %.preheader.us ], [ %indvars.iv.next, %8 ]
  %9 = getelementptr inbounds nuw ptr, ptr %0, i64 %indvars.iv
  %10 = load ptr, ptr %9, align 8, !tbaa !71
  %11 = getelementptr inbounds nuw ptr, ptr %1, i64 %indvars.iv
  %12 = load ptr, ptr %11, align 8, !tbaa !71
  %13 = getelementptr inbounds nuw float, ptr %12, i64 %indvars.iv20
  %14 = load float, ptr %13, align 4, !tbaa !81
  %15 = fpext nsz float %14 to double
  %16 = fmul nsz double %4, %15
  %17 = fptrunc nsz double %16 to float
  %18 = getelementptr inbounds nuw float, ptr %10, i64 %indvars.iv20
  store float %17, ptr %18, align 4, !tbaa !81
  %indvars.iv.next = add nuw nsw i64 %indvars.iv, 1
  %exitcond.not = icmp eq i64 %indvars.iv.next, %wide.trip.count
  br i1 %exitcond.not, label %._crit_edge.us, label %8, !llvm.loop !89

._crit_edge.us:                                   ; preds = %8
  %indvars.iv.next21 = add nuw nsw i64 %indvars.iv20, 1
  %exitcond24.not = icmp eq i64 %indvars.iv.next21, %wide.trip.count23
  br i1 %exitcond24.not, label %._crit_edge17, label %.preheader.us, !llvm.loop !90

._crit_edge17:                                    ; preds = %._crit_edge.us, %5
  ret void
}